target datalayout = "e-m:e-p270:32:32-p271:32:32-p272:64:64-i64:64-i128:128-f80:128-n8:16:32:64-S128"
target triple = "x86_64-unknown-linux-gnu"

%"struct.facebook::velox::ByteRange" = type { ptr, i32, i32 }
%"class.facebook::velox::ByteInputStream" = type { ptr, %"class.std::vector.38", ptr }
%"class.std::vector.38" = type { %"struct.std::_Vector_base.39" }
%"struct.std::_Vector_base.39" = type { %"struct.std::_Vector_base<facebook::velox::ByteRange, std::allocator<facebook::velox::ByteRange>>::_Vector_impl" }
%"struct.std::_Vector_base<facebook::velox::ByteRange, std::allocator<facebook::velox::ByteRange>>::_Vector_impl" = type { %"struct.std::_Vector_base<facebook::velox::ByteRange, std::allocator<facebook::velox::ByteRange>>::_Vector_impl_data" }
%"struct.std::_Vector_base<facebook::velox::ByteRange, std::allocator<facebook::velox::ByteRange>>::_Vector_impl_data" = type { ptr, ptr, ptr }
%class.anon.542 = type { ptr, ptr, ptr }
%class.anon.543 = type { i8, ptr, %class.anon.542 }

; Function Attrs: mustprogress uwtable
define linkonce_odr noundef float @_ZN8facebook5velox15ByteInputStream4readIfEET_v(ptr noundef nonnull align 8 dereferenceable(40) %this) #0 comdat align 2 {
entry:
  %retval = alloca float, align 4
  %this.addr = alloca ptr, align 8
  %value = alloca i64, align 8
  %i = alloca i32, align 4
  store ptr %this, ptr %this.addr, align 8
  %this1 = load ptr, ptr %this.addr, align 8
  %current_ = getelementptr inbounds %"class.facebook::velox::ByteInputStream", ptr %this1, i32 0, i32 2
  %0 = load ptr, ptr %current_, align 8
  %position = getelementptr inbounds %"struct.facebook::velox::ByteRange", ptr %0, i32 0, i32 2
  %1 = load i32, ptr %position, align 4
  %conv = sext i32 %1 to i64
  %add = add i64 %conv, 4
  %current_2 = getelementptr inbounds %"class.facebook::velox::ByteInputStream", ptr %this1, i32 0, i32 2
  %2 = load ptr, ptr %current_2, align 8
  %size = getelementptr inbounds %"struct.facebook::velox::ByteRange", ptr %2, i32 0, i32 1
  %3 = load i32, ptr %size, align 8
  %conv3 = sext i32 %3 to i64
  %cmp = icmp ule i64 %add, %conv3
  br i1 %cmp, label %if.then, label %if.end

if.then:                                          ; preds = %entry
  %current_4 = getelementptr inbounds %"class.facebook::velox::ByteInputStream", ptr %this1, i32 0, i32 2
  %4 = load ptr, ptr %current_4, align 8
  %position5 = getelementptr inbounds %"struct.facebook::velox::ByteRange", ptr %4, i32 0, i32 2
  %5 = load i32, ptr %position5, align 4
  %conv6 = sext i32 %5 to i64
  %add7 = add i64 %conv6, 4
  %conv8 = trunc i64 %add7 to i32
  store i32 %conv8, ptr %position5, align 4
  %current_9 = getelementptr inbounds %"class.facebook::velox::ByteInputStream", ptr %this1, i32 0, i32 2
  %6 = load ptr, ptr %current_9, align 8
  %buffer = getelementptr inbounds %"struct.facebook::velox::ByteRange", ptr %6, i32 0, i32 0
  %7 = load ptr, ptr %buffer, align 8
  %current_10 = getelementptr inbounds %"class.facebook::velox::ByteInputStream", ptr %this1, i32 0, i32 2
  %8 = load ptr, ptr %current_10, align 8
  %position11 = getelementptr inbounds %"struct.facebook::velox::ByteRange", ptr %8, i32 0, i32 2
  %9 = load i32, ptr %position11, align 4
  %idx.ext = sext i32 %9 to i64
  %add.ptr = getelementptr inbounds i8, ptr %7, i64 %idx.ext
  %add.ptr12 = getelementptr inbounds i8, ptr %add.ptr, i64 -4
  %10 = load float, ptr %add.ptr12, align 4
  store float %10, ptr %retval, align 4
  br label %return

if.end:                                           ; preds = %entry
  store i64 0, ptr %value, align 8
  store i32 0, ptr %i, align 4
  br label %for.cond

for.cond:                                         ; preds = %for.inc, %if.end
  %11 = load i32, ptr %i, align 4
  %conv13 = sext i32 %11 to i64
  %cmp14 = icmp ult i64 %conv13, 4
  br i1 %cmp14, label %for.body, label %for.end

for.body:                                         ; preds = %for.cond
  %call = call noundef zeroext i8 @_ZN8facebook5velox15ByteInputStream8readByteEv(ptr noundef nonnull align 8 dereferenceable(40) %this1)
  %conv15 = zext i8 %call to i64
  %12 = load i32, ptr %i, align 4
  %mul = mul nsw i32 %12, 8
  %sh_prom = zext i32 %mul to i64
  %shl = shl i64 %conv15, %sh_prom
  %13 = load i64, ptr %value, align 8
  %or = or i64 %13, %shl
  store i64 %or, ptr %value, align 8
  br label %for.inc

for.inc:                                          ; preds = %for.body
  %14 = load i32, ptr %i, align 4
  %inc = add nsw i32 %14, 1
  store i32 %inc, ptr %i, align 4
  br label %for.cond, !llvm.loop !273

for.end:                                          ; preds = %for.cond
  %15 = load float, ptr %value, align 8
  store float %15, ptr %retval, align 4
  br label %return

return:                                           ; preds = %for.end, %if.then
  %16 = load float, ptr %retval, align 4
  ret float %16
}

; Function Attrs: mustprogress uwtable
define internal void @_ZZN8facebook5velox10serializer6presto12_GLOBAL__N_110readValuesIfEEvPNS0_15ByteInputStreamEiiN5boost13intrusive_ptrINS0_6BufferEEEiSA_ENKUliE_clEi(ptr noundef nonnull align 8 dereferenceable(24) %this, i32 noundef %row) #0 align 2 {
entry:
  %this.addr = alloca ptr, align 8
  %row.addr = alloca i32, align 4
  store ptr %this, ptr %this.addr, align 8
  store i32 %row, ptr %row.addr, align 4
  %this1 = load ptr, ptr %this.addr, align 8
  br label %for.cond

for.cond:                                         ; preds = %for.inc, %entry
  %0 = getelementptr inbounds %class.anon.542, ptr %this1, i32 0, i32 0
  %1 = load ptr, ptr %0, align 8
  %2 = load i32, ptr %1, align 4
  %3 = load i32, ptr %row.addr, align 4
  %cmp = icmp slt i32 %2, %3
  br i1 %cmp, label %for.body, label %for.end

for.body:                                         ; preds = %for.cond
  %4 = getelementptr inbounds %class.anon.542, ptr %this1, i32 0, i32 1
  %5 = load ptr, ptr %4, align 8
  %6 = load ptr, ptr %5, align 8
  %7 = getelementptr inbounds %class.anon.542, ptr %this1, i32 0, i32 0
  %8 = load ptr, ptr %7, align 8
  %9 = load i32, ptr %8, align 4
  %idxprom = sext i32 %9 to i64
  %arrayidx = getelementptr inbounds float, ptr %6, i64 %idxprom
  store float 0.000000e+00, ptr %arrayidx, align 4
  br label %for.inc

for.inc:                                          ; preds = %for.body
  %10 = getelementptr inbounds %class.anon.542, ptr %this1, i32 0, i32 0
  %11 = load ptr, ptr %10, align 8
  %12 = load i32, ptr %11, align 4
  %inc = add nsw i32 %12, 1
  store i32 %inc, ptr %11, align 4
  br label %for.cond, !llvm.loop !272

for.end:                                          ; preds = %for.cond
  %13 = getelementptr inbounds %class.anon.542, ptr %this1, i32 0, i32 2
  %14 = load ptr, ptr %13, align 8
  %15 = load ptr, ptr %14, align 8
  %call = call noundef float @_ZN8facebook5velox15ByteInputStream4readIfEET_v(ptr noundef nonnull align 8 dereferenceable(40) %15)
  %16 = getelementptr inbounds %class.anon.542, ptr %this1, i32 0, i32 1
  %17 = load ptr, ptr %16, align 8
  %18 = load ptr, ptr %17, align 8
  %19 = load i32, ptr %row.addr, align 4
  %idxprom2 = sext i32 %19 to i64
  %arrayidx3 = getelementptr inbounds float, ptr %18, i64 %idxprom2
  store float %call, ptr %arrayidx3, align 4
  %20 = load i32, ptr %row.addr, align 4
  %add = add nsw i32 %20, 1
  %21 = getelementptr inbounds %class.anon.542, ptr %this1, i32 0, i32 0
  %22 = load ptr, ptr %21, align 8
  store i32 %add, ptr %22, align 4
  ret void
}

; Function Attrs: mustprogress uwtable
define internal void @_ZZN8facebook5velox4bits10forEachBitIZNS0_10serializer6presto12_GLOBAL__N_110readValuesIfEEvPNS0_15ByteInputStreamEiiN5boost13intrusive_ptrINS0_6BufferEEEiSC_EUliE_EEvPKmiibT_ENKUlimE_clEim(ptr noundef nonnull align 8 dereferenceable(40) %this, i32 noundef %idx, i64 noundef %mask) #0 align 2 {
entry:
  %this.addr = alloca ptr, align 8
  %idx.addr = alloca i32, align 4
  %mask.addr = alloca i64, align 8
  %word = alloca i64, align 8
  store ptr %this, ptr %this.addr, align 8
  store i32 %idx, ptr %idx.addr, align 4
  store i64 %mask, ptr %mask.addr, align 8
  %this1 = load ptr, ptr %this.addr, align 8
  %0 = getelementptr inbounds %class.anon.543, ptr %this1, i32 0, i32 0
  %1 = load i8, ptr %0, align 8
  %tobool = trunc i8 %1 to i1
  br i1 %tobool, label %cond.true, label %cond.false

cond.true:                                        ; preds = %entry
  %2 = getelementptr inbounds %class.anon.543, ptr %this1, i32 0, i32 1
  %3 = load ptr, ptr %2, align 8
  %4 = load i32, ptr %idx.addr, align 4
  %idxprom = sext i32 %4 to i64
  %arrayidx = getelementptr inbounds i64, ptr %3, i64 %idxprom
  %5 = load i64, ptr %arrayidx, align 8
  br label %cond.end

cond.false:                                       ; preds = %entry
  %6 = getelementptr inbounds %class.anon.543, ptr %this1, i32 0, i32 1
  %7 = load ptr, ptr %6, align 8
  %8 = load i32, ptr %idx.addr, align 4
  %idxprom2 = sext i32 %8 to i64
  %arrayidx3 = getelementptr inbounds i64, ptr %7, i64 %idxprom2
  %9 = load i64, ptr %arrayidx3, align 8
  %not = xor i64 %9, -1
  br label %cond.end

cond.end:                                         ; preds = %cond.false, %cond.true
  %cond = phi i64 [ %5, %cond.true ], [ %not, %cond.false ]
  %10 = load i64, ptr %mask.addr, align 8
  %and = and i64 %cond, %10
  store i64 %and, ptr %word, align 8
  %11 = load i64, ptr %word, align 8
  %tobool4 = icmp ne i64 %11, 0
  br i1 %tobool4, label %if.end, label %if.then

if.then:                                          ; preds = %cond.end
  br label %while.end

if.end:                                           ; preds = %cond.end
  br label %while.cond

while.cond:                                       ; preds = %while.body, %if.end
  %12 = load i64, ptr %word, align 8
  %tobool5 = icmp ne i64 %12, 0
  br i1 %tobool5, label %while.body, label %while.end

while.body:                                       ; preds = %while.cond
  %13 = getelementptr inbounds %class.anon.543, ptr %this1, i32 0, i32 2
  %14 = load i32, ptr %idx.addr, align 4
  %mul = mul nsw i32 %14, 64
  %15 = load i64, ptr %word, align 8
  %16 = call i64 @llvm.cttz.i64(i64 %15, i1 true)
  %cast = trunc i64 %16 to i32
  %add = add nsw i32 %mul, %cast
  call void @_ZZN8facebook5velox10serializer6presto12_GLOBAL__N_110readValuesIfEEvPNS0_15ByteInputStreamEiiN5boost13intrusive_ptrINS0_6BufferEEEiSA_ENKUliE_clEi(ptr noundef nonnull align 8 dereferenceable(24) %13, i32 noundef %add)
  %17 = load i64, ptr %word, align 8
  %sub = sub i64 %17, 1
  %18 = load i64, ptr %word, align 8
  %and6 = and i64 %18, %sub
  store i64 %and6, ptr %word, align 8
  br label %while.cond, !llvm.loop !269

while.end:                                        ; preds = %while.cond, %if.then
  ret void
}