; Function Attrs: mustprogress uwtable
define internal fastcc void @_ZZN8facebook5velox4bits10forEachBitIZNS0_10serializer6presto12_GLOBAL__N_110readValuesIfEEvPNS0_15ByteInputStreamEiiN5boost13intrusive_ptrINS0_6BufferEEEiSC_EUliE_EEvPKmiibT_ENKUlimE_clEim(ptr nocapture noundef nonnull readonly align 8 dereferenceable(40) %this, i32 noundef %idx, i64 noundef %mask) unnamed_addr #0 align 2 {
entry:
  %0 = load i8, ptr %this, align 8
  %1 = and i8 %0, 1
  %2 = getelementptr inbounds i8, ptr %this, i64 8
  %3 = load ptr, ptr %2, align 8
  %idxprom2 = sext i32 %idx to i64
  %arrayidx3 = getelementptr inbounds i64, ptr %3, i64 %idxprom2
  %4 = load i64, ptr %arrayidx3, align 8
  %sext = add nsw i8 %1, -1
  %not = sext i8 %sext to i64
  %cond = xor i64 %4, %not
  %and = and i64 %cond, %mask
  %tobool4.not = icmp eq i64 %and, 0
  br i1 %tobool4.not, label %while.end, label %while.body.preheader

while.body.preheader:                             ; preds = %entry
  %5 = getelementptr inbounds i8, ptr %this, i64 16
  %mul = shl nsw i32 %idx, 6
  %6 = getelementptr inbounds i8, ptr %this, i64 32
  %7 = getelementptr inbounds i8, ptr %this, i64 24
  br label %while.body

while.body:                                       ; preds = %while.body.preheader, %_ZZN8facebook5velox10serializer6presto12_GLOBAL__N_110readValuesIfEEvPNS0_15ByteInputStreamEiiN5boost13intrusive_ptrINS0_6BufferEEEiSA_ENKUliE_clEi.exit
  %word.0 = phi i64 [ %and6, %_ZZN8facebook5velox10serializer6presto12_GLOBAL__N_110readValuesIfEEvPNS0_15ByteInputStreamEiiN5boost13intrusive_ptrINS0_6BufferEEEiSA_ENKUliE_clEi.exit ], [ %and, %while.body.preheader ]
  %8 = tail call i64 @llvm.cttz.i64(i64 %word.0, i1 true), !range !4
  %cast = trunc i64 %8 to i32
  %add = or disjoint i32 %mul, %cast
  %9 = load ptr, ptr %5, align 8
  %10 = load i32, ptr %9, align 4
  %cmp3.i = icmp slt i32 %10, %add
  br i1 %cmp3.i, label %for.body.i, label %for.end.i

for.body.i:                                       ; preds = %while.body, %for.body.i
  %11 = phi i32 [ %17, %for.body.i ], [ %10, %while.body ]
  %12 = load ptr, ptr %7, align 8
  %13 = load ptr, ptr %12, align 8
  %idxprom.i = sext i32 %11 to i64
  %arrayidx.i = getelementptr inbounds float, ptr %13, i64 %idxprom.i
  store float 0.000000e+00, ptr %arrayidx.i, align 4
  %14 = load ptr, ptr %5, align 8
  %15 = load i32, ptr %14, align 4
  %inc.i = add nsw i32 %15, 1
  store i32 %inc.i, ptr %14, align 4
  %16 = load ptr, ptr %5, align 8
  %17 = load i32, ptr %16, align 4
  %cmp.i = icmp slt i32 %17, %add
  br i1 %cmp.i, label %for.body.i, label %for.end.i, !llvm.loop !339

for.end.i:                                        ; preds = %for.body.i, %while.body
  %18 = load ptr, ptr %6, align 8
  %19 = load ptr, ptr %18, align 8
  %current_.i.i = getelementptr inbounds i8, ptr %19, i64 32
  %20 = load ptr, ptr %current_.i.i, align 8
  %position.i.i = getelementptr inbounds i8, ptr %20, i64 12
  %21 = load i32, ptr %position.i.i, align 4
  %conv.i.i = sext i32 %21 to i64
  %add.i.i = add nsw i64 %conv.i.i, 4
  %size.i.i = getelementptr inbounds i8, ptr %20, i64 8
  %22 = load i32, ptr %size.i.i, align 8
  %conv3.i.i = sext i32 %22 to i64
  %cmp.not.i.i = icmp ugt i64 %add.i.i, %conv3.i.i
  br i1 %cmp.not.i.i, label %for.body.i.i, label %if.then.i.i

if.then.i.i:                                      ; preds = %for.end.i
  %conv8.i.i = trunc i64 %add.i.i to i32
  store i32 %conv8.i.i, ptr %position.i.i, align 4
  %23 = load ptr, ptr %current_.i.i, align 8
  %24 = load ptr, ptr %23, align 8
  %position11.i.i = getelementptr inbounds i8, ptr %23, i64 12
  %25 = load i32, ptr %position11.i.i, align 4
  %idx.ext.i.i = sext i32 %25 to i64
  %add.ptr.i.i = getelementptr inbounds i8, ptr %24, i64 %idx.ext.i.i
  %add.ptr12.i.i = getelementptr inbounds i8, ptr %add.ptr.i.i, i64 -4
  %26 = load float, ptr %add.ptr12.i.i, align 4
  br label %_ZZN8facebook5velox10serializer6presto12_GLOBAL__N_110readValuesIfEEvPNS0_15ByteInputStreamEiiN5boost13intrusive_ptrINS0_6BufferEEEiSA_ENKUliE_clEi.exit

for.body.i.i:                                     ; preds = %for.end.i, %for.body.i.i
  %indvars.iv.i.i = phi i64 [ %indvars.iv.next.i.i, %for.body.i.i ], [ 0, %for.end.i ]
  %27 = phi i32 [ %value.sroa.0.0.extract.trunc.i.i, %for.body.i.i ], [ 0, %for.end.i ]
  %call.i.i = tail call noundef zeroext i8 @_ZN8facebook5velox15ByteInputStream8readByteEv(ptr noundef nonnull align 8 dereferenceable(40) %19)
  %conv15.i.i = zext i8 %call.i.i to i64
  %28 = shl nuw nsw i64 %indvars.iv.i.i, 3
  %shl.i.i = shl nuw nsw i64 %conv15.i.i, %28
  %29 = trunc i64 %shl.i.i to i32
  %value.sroa.0.0.extract.trunc.i.i = or i32 %27, %29
  %indvars.iv.next.i.i = add nuw nsw i64 %indvars.iv.i.i, 1
  %exitcond.not.i.i = icmp eq i64 %indvars.iv.next.i.i, 4
  br i1 %exitcond.not.i.i, label %return.loopexit.i.i, label %for.body.i.i, !llvm.loop !340

return.loopexit.i.i:                              ; preds = %for.body.i.i
  %30 = bitcast i32 %value.sroa.0.0.extract.trunc.i.i to float
  br label %_ZZN8facebook5velox10serializer6presto12_GLOBAL__N_110readValuesIfEEvPNS0_15ByteInputStreamEiiN5boost13intrusive_ptrINS0_6BufferEEEiSA_ENKUliE_clEi.exit

_ZZN8facebook5velox10serializer6presto12_GLOBAL__N_110readValuesIfEEvPNS0_15ByteInputStreamEiiN5boost13intrusive_ptrINS0_6BufferEEEiSA_ENKUliE_clEi.exit: ; preds = %if.then.i.i, %return.loopexit.i.i
  %retval.0.i.i = phi float [ %26, %if.then.i.i ], [ %30, %return.loopexit.i.i ]
  %31 = load ptr, ptr %7, align 8
  %32 = load ptr, ptr %31, align 8
  %idxprom2.i = sext i32 %add to i64
  %arrayidx3.i = getelementptr inbounds float, ptr %32, i64 %idxprom2.i
  store float %retval.0.i.i, ptr %arrayidx3.i, align 4
  %add.i = add nsw i32 %add, 1
  %33 = load ptr, ptr %5, align 8
  store i32 %add.i, ptr %33, align 4
  %sub = add i64 %word.0, -1
  %and6 = and i64 %sub, %word.0
  %tobool5.old.not = icmp eq i64 %and6, 0
  br i1 %tobool5.old.not, label %while.end, label %while.body

while.end:                                        ; preds = %_ZZN8facebook5velox10serializer6presto12_GLOBAL__N_110readValuesIfEEvPNS0_15ByteInputStreamEiiN5boost13intrusive_ptrINS0_6BufferEEEiSA_ENKUliE_clEi.exit, %entry
  ret void
}